target datalayout = "e-m:e-p270:32:32-p271:32:32-p272:64:64-i64:64-i128:128-f80:128-n8:16:32:64-S128"
target triple = "x86_64-pc-linux-gnu"

%struct.mbedtls_asn1_buf = type { i32, i64, ptr }

@.str = private unnamed_addr constant [121 x i8] c"generated/home/dtcxzyw/WorkSpace/Projects/compilers/llvm-opt-benchmark/bench/lief/bench_build/mbed_src/library/pkparse.c\00", align 1
@.str.16 = private unnamed_addr constant [10 x i8] c"*\86H\86\F7\0D\01\05\0D\00", align 1

; Function Attrs: inlinehint nounwind uwtable
define internal i32 @mbedtls_error_add(i32 noundef %0, i32 noundef %1, ptr noundef %2, i32 noundef %3) #3 {
  %5 = alloca i32, align 4
  %6 = alloca i32, align 4
  %7 = alloca ptr, align 8
  %8 = alloca i32, align 4
  store i32 %0, ptr %5, align 4, !tbaa !13
  store i32 %1, ptr %6, align 4, !tbaa !13
  store ptr %2, ptr %7, align 8, !tbaa !9
  store i32 %3, ptr %8, align 4, !tbaa !13
  %9 = load i32, ptr %5, align 4, !tbaa !13
  %10 = load i32, ptr %6, align 4, !tbaa !13
  %11 = add nsw i32 %9, %10
  ret i32 %11
}

; Function Attrs: nounwind uwtable
define internal i32 @mbedtls_pk_parse_key_pkcs8_encrypted_der(ptr noundef %0, ptr noundef %1, i64 noundef %2, ptr noundef %3, i64 noundef %4, ptr noundef %5, ptr noundef %6) #0 {
  %8 = alloca i32, align 4
  %9 = alloca ptr, align 8
  %10 = alloca ptr, align 8
  %11 = alloca i64, align 8
  %12 = alloca ptr, align 8
  %13 = alloca i64, align 8
  %14 = alloca ptr, align 8
  %15 = alloca ptr, align 8
  %16 = alloca i32, align 4
  %17 = alloca i32, align 4
  %18 = alloca i64, align 8
  %19 = alloca ptr, align 8
  %20 = alloca ptr, align 8
  %21 = alloca ptr, align 8
  %22 = alloca %struct.mbedtls_asn1_buf, align 8
  %23 = alloca %struct.mbedtls_asn1_buf, align 8
  %24 = alloca i32, align 4
  %25 = alloca i32, align 4
  %26 = alloca i64, align 8
  %27 = alloca i32, align 4
  store ptr %0, ptr %9, align 8, !tbaa !11
  store ptr %1, ptr %10, align 8, !tbaa !9
  store i64 %2, ptr %11, align 8, !tbaa !15
  store ptr %3, ptr %12, align 8, !tbaa !9
  store i64 %4, ptr %13, align 8, !tbaa !15
  store ptr %5, ptr %14, align 8, !tbaa !19
  store ptr %6, ptr %15, align 8, !tbaa !19
  call void @llvm.lifetime.start.p0(i64 4, ptr %16) #9
  call void @llvm.lifetime.start.p0(i64 4, ptr %17) #9
  store i32 0, ptr %17, align 4, !tbaa !13
  call void @llvm.lifetime.start.p0(i64 8, ptr %18) #9
  call void @llvm.lifetime.start.p0(i64 8, ptr %19) #9
  call void @llvm.lifetime.start.p0(i64 8, ptr %20) #9
  call void @llvm.lifetime.start.p0(i64 8, ptr %21) #9
  call void @llvm.lifetime.start.p0(i64 24, ptr %22) #9
  call void @llvm.lifetime.start.p0(i64 24, ptr %23) #9
  call void @llvm.lifetime.start.p0(i64 4, ptr %24) #9
  call void @llvm.lifetime.start.p0(i64 4, ptr %25) #9
  call void @llvm.lifetime.start.p0(i64 8, ptr %26) #9
  store i64 0, ptr %26, align 8, !tbaa !15
  %28 = load ptr, ptr %10, align 8, !tbaa !9
  store ptr %28, ptr %20, align 8, !tbaa !9
  %29 = load ptr, ptr %20, align 8, !tbaa !9
  %30 = load i64, ptr %11, align 8, !tbaa !15
  %31 = getelementptr inbounds nuw i8, ptr %29, i64 %30
  store ptr %31, ptr %21, align 8, !tbaa !9
  %32 = load i64, ptr %13, align 8, !tbaa !15
  %33 = icmp eq i64 %32, 0
  br i1 %33, label %34, label %35

34:                                               ; preds = %7
  store i32 -15360, ptr %8, align 4
  store i32 1, ptr %27, align 4
  br label %125

35:                                               ; preds = %7
  %36 = load ptr, ptr %21, align 8, !tbaa !9
  %37 = call i32 @mbedtls_asn1_get_tag(ptr noundef %20, ptr noundef %36, ptr noundef %18, i32 noundef 48)
  store i32 %37, ptr %16, align 4, !tbaa !13
  %38 = icmp ne i32 %37, 0
  br i1 %38, label %39, label %42

39:                                               ; preds = %35
  %40 = load i32, ptr %16, align 4, !tbaa !13
  %41 = call i32 @mbedtls_error_add(i32 noundef -15616, i32 noundef %40, ptr noundef @.str, i32 noundef 906)
  store i32 %41, ptr %8, align 4
  store i32 1, ptr %27, align 4
  br label %125

42:                                               ; preds = %35
  %43 = load ptr, ptr %20, align 8, !tbaa !9
  %44 = load i64, ptr %18, align 8, !tbaa !15
  %45 = getelementptr inbounds nuw i8, ptr %43, i64 %44
  store ptr %45, ptr %21, align 8, !tbaa !9
  %46 = load ptr, ptr %21, align 8, !tbaa !9
  %47 = call i32 @mbedtls_asn1_get_alg(ptr noundef %20, ptr noundef %46, ptr noundef %22, ptr noundef %23)
  store i32 %47, ptr %16, align 4, !tbaa !13
  %48 = icmp ne i32 %47, 0
  br i1 %48, label %49, label %52

49:                                               ; preds = %42
  %50 = load i32, ptr %16, align 4, !tbaa !13
  %51 = call i32 @mbedtls_error_add(i32 noundef -15616, i32 noundef %50, ptr noundef @.str, i32 noundef 912)
  store i32 %51, ptr %8, align 4
  store i32 1, ptr %27, align 4
  br label %125

52:                                               ; preds = %42
  %53 = load ptr, ptr %21, align 8, !tbaa !9
  %54 = call i32 @mbedtls_asn1_get_tag(ptr noundef %20, ptr noundef %53, ptr noundef %18, i32 noundef 4)
  store i32 %54, ptr %16, align 4, !tbaa !13
  %55 = icmp ne i32 %54, 0
  br i1 %55, label %56, label %59

56:                                               ; preds = %52
  %57 = load i32, ptr %16, align 4, !tbaa !13
  %58 = call i32 @mbedtls_error_add(i32 noundef -15616, i32 noundef %57, ptr noundef @.str, i32 noundef 916)
  store i32 %58, ptr %8, align 4
  store i32 1, ptr %27, align 4
  br label %125

59:                                               ; preds = %52
  %60 = load ptr, ptr %20, align 8, !tbaa !9
  store ptr %60, ptr %19, align 8, !tbaa !9
  %61 = call i32 @mbedtls_oid_get_pkcs12_pbe_alg(ptr noundef %22, ptr noundef %25, ptr noundef %24)
  %62 = icmp eq i32 %61, 0
  br i1 %62, label %63, label %81

63:                                               ; preds = %59
  %64 = load i32, ptr %24, align 4, !tbaa !13
  %65 = load i32, ptr %25, align 4, !tbaa !13
  %66 = load ptr, ptr %12, align 8, !tbaa !9
  %67 = load i64, ptr %13, align 8, !tbaa !15
  %68 = load ptr, ptr %20, align 8, !tbaa !9
  %69 = load i64, ptr %18, align 8, !tbaa !15
  %70 = load ptr, ptr %19, align 8, !tbaa !9
  %71 = load i64, ptr %18, align 8, !tbaa !15
  %72 = call i32 @mbedtls_pkcs12_pbe_ext(ptr noundef %23, i32 noundef 0, i32 noundef %64, i32 noundef %65, ptr noundef %66, i64 noundef %67, ptr noundef %68, i64 noundef %69, ptr noundef %70, i64 noundef %71, ptr noundef %26)
  store i32 %72, ptr %16, align 4, !tbaa !13
  %73 = icmp ne i32 %72, 0
  br i1 %73, label %74, label %80

74:                                               ; preds = %63
  %75 = load i32, ptr %16, align 4, !tbaa !13
  %76 = icmp eq i32 %75, -7680
  br i1 %76, label %77, label %78

77:                                               ; preds = %74
  store i32 -15232, ptr %8, align 4
  store i32 1, ptr %27, align 4
  br label %125

78:                                               ; preds = %74
  %79 = load i32, ptr %16, align 4, !tbaa !13
  store i32 %79, ptr %8, align 4
  store i32 1, ptr %27, align 4
  br label %125

80:                                               ; preds = %63
  store i32 1, ptr %17, align 4, !tbaa !13
  br label %114

81:                                               ; preds = %59
  %82 = getelementptr inbounds nuw %struct.mbedtls_asn1_buf, ptr %22, i32 0, i32 1
  %83 = load i64, ptr %82, align 8, !tbaa !24
  %84 = icmp ne i64 9, %83
  br i1 %84, label %92, label %85

85:                                               ; preds = %81
  %86 = getelementptr inbounds nuw %struct.mbedtls_asn1_buf, ptr %22, i32 0, i32 2
  %87 = load ptr, ptr %86, align 8, !tbaa !31
  %88 = getelementptr inbounds nuw %struct.mbedtls_asn1_buf, ptr %22, i32 0, i32 1
  %89 = load i64, ptr %88, align 8, !tbaa !24
  %90 = call i32 @memcmp(ptr noundef @.str.16, ptr noundef %87, i64 noundef %89) #11
  %91 = icmp ne i32 %90, 0
  br label %92

92:                                               ; preds = %85, %81
  %93 = phi i1 [ true, %81 ], [ %91, %85 ]
  %94 = zext i1 %93 to i32
  %95 = icmp eq i32 %94, 0
  br i1 %95, label %96, label %112

96:                                               ; preds = %92
  %97 = load ptr, ptr %12, align 8, !tbaa !9
  %98 = load i64, ptr %13, align 8, !tbaa !15
  %99 = load ptr, ptr %20, align 8, !tbaa !9
  %100 = load i64, ptr %18, align 8, !tbaa !15
  %101 = load ptr, ptr %19, align 8, !tbaa !9
  %102 = load i64, ptr %18, align 8, !tbaa !15
  %103 = call i32 @mbedtls_pkcs5_pbes2_ext(ptr noundef %23, i32 noundef 0, ptr noundef %97, i64 noundef %98, ptr noundef %99, i64 noundef %100, ptr noundef %101, i64 noundef %102, ptr noundef %26)
  store i32 %103, ptr %16, align 4, !tbaa !13
  %104 = icmp ne i32 %103, 0
  br i1 %104, label %105, label %111

105:                                              ; preds = %96
  %106 = load i32, ptr %16, align 4, !tbaa !13
  %107 = icmp eq i32 %106, -11776
  br i1 %107, label %108, label %109

108:                                              ; preds = %105
  store i32 -15232, ptr %8, align 4
  store i32 1, ptr %27, align 4
  br label %125

109:                                              ; preds = %105
  %110 = load i32, ptr %16, align 4, !tbaa !13
  store i32 %110, ptr %8, align 4
  store i32 1, ptr %27, align 4
  br label %125

111:                                              ; preds = %96
  store i32 1, ptr %17, align 4, !tbaa !13
  br label %113

112:                                              ; preds = %92
  br label %113

113:                                              ; preds = %112, %111
  br label %114

114:                                              ; preds = %113, %80
  %115 = load i32, ptr %17, align 4, !tbaa !13
  %116 = icmp eq i32 %115, 0
  br i1 %116, label %117, label %118

117:                                              ; preds = %114
  store i32 -14720, ptr %8, align 4
  store i32 1, ptr %27, align 4
  br label %125

118:                                              ; preds = %114
  %119 = load ptr, ptr %9, align 8, !tbaa !11
  %120 = load ptr, ptr %19, align 8, !tbaa !9
  %121 = load i64, ptr %26, align 8, !tbaa !15
  %122 = load ptr, ptr %14, align 8, !tbaa !19
  %123 = load ptr, ptr %15, align 8, !tbaa !19
  %124 = call i32 @pk_parse_key_pkcs8_unencrypted_der(ptr noundef %119, ptr noundef %120, i64 noundef %121, ptr noundef %122, ptr noundef %123)
  store i32 %124, ptr %8, align 4
  store i32 1, ptr %27, align 4
  br label %125

125:                                              ; preds = %118, %117, %109, %108, %78, %77, %56, %49, %39, %34
  call void @llvm.lifetime.end.p0(i64 8, ptr %26) #9
  call void @llvm.lifetime.end.p0(i64 4, ptr %25) #9
  call void @llvm.lifetime.end.p0(i64 4, ptr %24) #9
  call void @llvm.lifetime.end.p0(i64 24, ptr %23) #9
  call void @llvm.lifetime.end.p0(i64 24, ptr %22) #9
  call void @llvm.lifetime.end.p0(i64 8, ptr %21) #9
  call void @llvm.lifetime.end.p0(i64 8, ptr %20) #9
  call void @llvm.lifetime.end.p0(i64 8, ptr %19) #9
  call void @llvm.lifetime.end.p0(i64 8, ptr %18) #9
  call void @llvm.lifetime.end.p0(i64 4, ptr %17) #9
  call void @llvm.lifetime.end.p0(i64 4, ptr %16) #9
  %126 = load i32, ptr %8, align 4
  ret i32 %126
}