; Function Attrs: nounwind uwtable
define internal fastcc i32 @mbedtls_pk_parse_key_pkcs8_encrypted_der(ptr noundef %0, ptr noundef %1, i64 noundef %2, ptr noundef %3, i64 noundef %4, ptr noundef %5, ptr noundef %6) unnamed_addr #0 {
  %8 = alloca i64, align 8
  %9 = alloca ptr, align 8
  %10 = alloca %struct.mbedtls_asn1_buf, align 8
  %11 = alloca %struct.mbedtls_asn1_buf, align 8
  %12 = alloca i32, align 4
  %13 = alloca i32, align 4
  %14 = alloca i64, align 8
  call void @llvm.lifetime.start.p0(i64 8, ptr nonnull %8) #9
  call void @llvm.lifetime.start.p0(i64 8, ptr nonnull %9) #9
  call void @llvm.lifetime.start.p0(i64 24, ptr nonnull %10) #9
  call void @llvm.lifetime.start.p0(i64 24, ptr nonnull %11) #9
  call void @llvm.lifetime.start.p0(i64 4, ptr nonnull %12) #9
  call void @llvm.lifetime.start.p0(i64 4, ptr nonnull %13) #9
  call void @llvm.lifetime.start.p0(i64 8, ptr nonnull %14) #9
  store i64 0, ptr %14, align 8, !tbaa !10
  store ptr %1, ptr %9, align 8, !tbaa !7
  %15 = icmp eq i64 %4, 0
  br i1 %15, label %.critedge38, label %16

16:                                               ; preds = %7
  %17 = getelementptr inbounds nuw i8, ptr %1, i64 %2
  %18 = call i32 @mbedtls_asn1_get_tag(ptr noundef nonnull %9, ptr noundef %17, ptr noundef nonnull %8, i32 noundef 48) #9
  %.not = icmp eq i32 %18, 0
  br i1 %.not, label %21, label %19

19:                                               ; preds = %16
  %20 = add nsw i32 %18, -15616
  br label %.critedge38

21:                                               ; preds = %16
  %22 = load ptr, ptr %9, align 8, !tbaa !7
  %23 = load i64, ptr %8, align 8, !tbaa !10
  %24 = getelementptr inbounds nuw i8, ptr %22, i64 %23
  %25 = call i32 @mbedtls_asn1_get_alg(ptr noundef nonnull %9, ptr noundef %24, ptr noundef nonnull %10, ptr noundef nonnull %11) #9
  %.not32 = icmp eq i32 %25, 0
  br i1 %.not32, label %28, label %26

26:                                               ; preds = %21
  %27 = add nsw i32 %25, -15616
  br label %.critedge38

28:                                               ; preds = %21
  %29 = call i32 @mbedtls_asn1_get_tag(ptr noundef nonnull %9, ptr noundef %24, ptr noundef nonnull %8, i32 noundef 4) #9
  %.not33 = icmp eq i32 %29, 0
  br i1 %.not33, label %32, label %30

30:                                               ; preds = %28
  %31 = add nsw i32 %29, -15616
  br label %.critedge38

32:                                               ; preds = %28
  %33 = load ptr, ptr %9, align 8, !tbaa !7
  %34 = call i32 @mbedtls_oid_get_pkcs12_pbe_alg(ptr noundef nonnull %10, ptr noundef nonnull %13, ptr noundef nonnull %12) #9
  %35 = icmp eq i32 %34, 0
  br i1 %35, label %36, label %43

36:                                               ; preds = %32
  %37 = load i32, ptr %12, align 4, !tbaa !3
  %38 = load i32, ptr %13, align 4, !tbaa !3
  %39 = load ptr, ptr %9, align 8, !tbaa !7
  %40 = load i64, ptr %8, align 8, !tbaa !10
  %41 = call i32 @mbedtls_pkcs12_pbe_ext(ptr noundef nonnull %11, i32 noundef 0, i32 noundef %37, i32 noundef %38, ptr noundef %3, i64 noundef %4, ptr noundef %39, i64 noundef %40, ptr noundef %33, i64 noundef %40, ptr noundef nonnull %14) #9
  switch i32 %41, label %42 [
    i32 0, label %.critedge
    i32 -7680, label %.critedge38
  ]

42:                                               ; preds = %36
  br label %.critedge38

43:                                               ; preds = %32
  %44 = getelementptr inbounds nuw i8, ptr %10, i64 8
  %45 = load i64, ptr %44, align 8, !tbaa !14
  %.not34 = icmp eq i64 %45, 9
  br i1 %.not34, label %46, label %.critedge38

46:                                               ; preds = %43
  %47 = getelementptr inbounds nuw i8, ptr %10, i64 16
  %48 = load ptr, ptr %47, align 8, !tbaa !15
  %bcmp = call i32 @bcmp(ptr noundef nonnull dereferenceable(9) @.str.16, ptr noundef nonnull dereferenceable(9) %48, i64 9)
  %.not35 = icmp eq i32 %bcmp, 0
  br i1 %.not35, label %49, label %.critedge38

49:                                               ; preds = %46
  %50 = load ptr, ptr %9, align 8, !tbaa !7
  %51 = load i64, ptr %8, align 8, !tbaa !10
  %52 = call i32 @mbedtls_pkcs5_pbes2_ext(ptr noundef nonnull %11, i32 noundef 0, ptr noundef %3, i64 noundef %4, ptr noundef %50, i64 noundef %51, ptr noundef %33, i64 noundef %51, ptr noundef nonnull %14) #9
  switch i32 %52, label %53 [
    i32 0, label %.critedge
    i32 -11776, label %.critedge38
  ]

53:                                               ; preds = %49
  br label %.critedge38

.critedge:                                        ; preds = %36, %49
  %54 = load i64, ptr %14, align 8, !tbaa !10
  %55 = call fastcc i32 @pk_parse_key_pkcs8_unencrypted_der(ptr noundef %0, ptr noundef %33, i64 noundef %54, ptr noundef %5, ptr noundef %6)
  br label %.critedge38

.critedge38:                                      ; preds = %46, %43, %49, %36, %7, %.critedge, %53, %42, %30, %26, %19
  %.0 = phi i32 [ %20, %19 ], [ %27, %26 ], [ %31, %30 ], [ %41, %42 ], [ %55, %.critedge ], [ %52, %53 ], [ -15360, %7 ], [ -15232, %36 ], [ -15232, %49 ], [ -14720, %43 ], [ -14720, %46 ]
  call void @llvm.lifetime.end.p0(i64 8, ptr nonnull %14) #9
  call void @llvm.lifetime.end.p0(i64 4, ptr nonnull %13) #9
  call void @llvm.lifetime.end.p0(i64 4, ptr nonnull %12) #9
  call void @llvm.lifetime.end.p0(i64 24, ptr nonnull %11) #9
  call void @llvm.lifetime.end.p0(i64 24, ptr nonnull %10) #9
  call void @llvm.lifetime.end.p0(i64 8, ptr nonnull %9) #9
  call void @llvm.lifetime.end.p0(i64 8, ptr nonnull %8) #9
  ret i32 %.0
}